(lp0
Vtesting002
p1
aI00
aF1.0
aF1.0
aF1.0
aF1.0
aI00
aI0
aF0.0
a(lp2
(lp3
I1
aF0.9231884057971014
aF4.787234042553191
aF0.1
aF0.0
aF20.0
aF15000.0
aF0.5
aF0.0
aF0.0
aF1.0
aF0.0
aF1.0
aF0.0
aF0.0
aa(lp4
I2
aF1.755072463768116
aF-8.51063829787234
aF0.1
aF0.031
aF20.0
aF15000.0
aF0.5
aF0.0
aF0.0
aF1.0
aF0.0
aF1.0
aF0.0
aF0.0
aa(lp5
I3
aF2.607246376811594
aF8.085106382978722
aF0.1
aF0.0
aF20.0
aF15000.0
aF0.5
aF0.0
aF0.0
aF1.0
aF0.0
aF1.0
aF0.0
aF0.0
aaa.