(lp0
Vtesting003
p1
aI00
aF1.0
aF1.0
aF1.0
aF1.0
aI00
aF2.739130434782609
aF0.903
a(lp2
(lp3
I1
aF0.7608695652173912
aF6.914893617021278
aF0.1
aI0
aI20
aI15000
aF0.5
aF0.0
aF0.0
aF1.0
aF0.0
aF1.0
aF0.0
aI0
aa(lp4
I2
aF1.2173913043478262
aF-2.4468085106382986
aF0.1
aI0
aI20
aI15000
aF0.5
aF0.0
aF0.0
aF1.0
aF0.0
aF1.0
aF0.0
aI0
aaa.