(lp0
Vbla bla 04
p1
aI00
aF1.0
aF0.967
aF1.0
aF1.0
aI01
aI0
aF0.0
a(lp2
(lp3
I1
aF0.4666666666666667
aF1.2765957446808507
aF0.1
aI0
aI20
aI15000
aF0.5
aF0.0
aF0.0
aF1.0
aF0.0
aF1.0
aF0.0
aI0
aa(lp4
I2
aF0.9942028985507246
aF4.574468085106382
aF0.1
aI0
aI20
aI15000
aF0.5
aF0.0
aF0.0
aF1.0
aF0.0
aF1.0
aF0.0
aI0
aa(lp5
I3
aF1.481159420289855
aF9.25531914893617
aF0.1
aI0
aI20
aI15000
aF0.5
aF0.0
aF0.0
aF1.0
aF0.0
aF1.0
aF0.0
aI0
aa(lp6
I4
aF1.9782608695652173
aF-4.680851063829788
aF0.1
aI0
aI20
aI15000
aF0.5
aF0.0
aF0.0
aF1.0
aF0.0
aF1.0
aF0.0
aI0
aa(lp7
I5
aF2.4855072463768115
aF-10.0
aF0.1
aI0
aI20
aI15000
aF0.5
aF0.0
aF0.0
aF1.0
aF0.0
aF1.0
aF0.0
aI0
aa(lp8
I6
aF3.0231884057971015
aF4.574468085106382
aF0.1
aI0
aI20
aI15000
aF0.5
aF0.0
aF0.0
aF1.0
aF0.0
aF1.0
aF0.0
aI0
aaa.