(lp0
Vtesting05
p1
aI00
aF1.0
aF1.0
aF0.0
aF1.0
aI00
aF2.739130434782609
aF0.93
a(lp2
(lp3
I1
aF3.5
aF12.0
aF0.1
aF0.0
aF20.0
aF15000.0
aF0.5
aF0.0
aF0.0
aF1.0
aF0.33
aF1.0
aF0.21
aF0.0
aa(lp4
I2
aF4.5
aF-12.0
aF0.1
aF0.0
aF20.0
aF15000.0
aF0.5
aF0.0
aF0.0
aF1.0
aF0.5
aF1.0
aF0.1
aF0.0
aaaF1818.4
aF7438.4
aF0.0
a.